; Function Attrs: null_pointer_is_valid sspstrong uwtable
define internal i32 @dissect_ngap_SuccessfulOutcome_value(ptr noundef %0, i32 noundef %1, ptr noundef %2, ptr noundef %3, i32 noundef %4) #0 {
  %6 = getelementptr inbounds nuw i8, ptr %2, i64 16
  %7 = load ptr, ptr %6, align 8
  %8 = getelementptr inbounds nuw i8, ptr %7, i64 408
  %9 = load ptr, ptr %8, align 8
  %10 = load i32, ptr @proto_ngap, align 4
  %11 = tail call ptr @p_get_proto_data(ptr noundef %9, ptr noundef %7, i32 noundef %10, i32 noundef 0)
  %.not.i = icmp eq ptr %11, null
  br i1 %.not.i, label %12, label %ngap_get_private_data.exit

12:                                               ; preds = %5
  %13 = load ptr, ptr %8, align 8
  %14 = tail call noalias dereferenceable_or_null(72) ptr @wmem_alloc0(ptr noundef %13, i64 noundef 72) #13
  %15 = getelementptr inbounds nuw i8, ptr %14, i64 24
  store i32 -1, ptr %15, align 8
  %16 = getelementptr inbounds nuw i8, ptr %14, i64 56
  store i8 -1, ptr %16, align 8
  %17 = load ptr, ptr %8, align 8
  %18 = load i32, ptr @proto_ngap, align 4
  tail call void @p_add_proto_data(ptr noundef %17, ptr noundef %7, i32 noundef %18, i32 noundef 0, ptr noundef %14)
  br label %ngap_get_private_data.exit

ngap_get_private_data.exit:                       ; preds = %5, %12
  %.0.i = phi ptr [ %11, %5 ], [ %14, %12 ]
  %19 = getelementptr inbounds nuw i8, ptr %.0.i, i64 20
  store i32 1, ptr %19, align 4
  %20 = tail call i32 @dissect_per_open_type_pdu_new(ptr noundef %0, i32 noundef %1, ptr noundef %2, ptr noundef %3, i32 noundef %4, ptr noundef nonnull @dissect_SuccessfulOutcomeValue)
  ret i32 %20
}